target datalayout = "e-m:e-p270:32:32-p271:32:32-p272:64:64-i64:64-i128:128-f80:128-n8:16:32:64-S128"
target triple = "x86_64-pc-linux-gnu"

%"class.arrow::compute::FunctionOptions" = type { ptr, ptr }
%"class.arrow::compute::ArraySortOptions" = type { %"class.arrow::compute::FunctionOptions", i32, i32 }

@_ZN5arrow7compute8internal12_GLOBAL__N_121kArraySortOptionsTypeE = internal global ptr null, align 8
@_ZTVN5arrow7compute16ArraySortOptionsE = linkonce_odr unnamed_addr constant { [4 x ptr] } { [4 x ptr] [ptr null, ptr @_ZTIN5arrow7compute16ArraySortOptionsE, ptr @_ZN5arrow4util18EqualityComparableINS_7compute15FunctionOptionsEED2Ev, ptr @_ZN5arrow7compute16ArraySortOptionsD0Ev] }, comdat, align 8
@_ZTVN5arrow7compute15FunctionOptionsE = linkonce_odr unnamed_addr constant { [4 x ptr] } { [4 x ptr] [ptr null, ptr @_ZTIN5arrow7compute15FunctionOptionsE, ptr @_ZN5arrow4util18EqualityComparableINS_7compute15FunctionOptionsEED2Ev, ptr @_ZN5arrow7compute15FunctionOptionsD0Ev] }, comdat, align 8

; Function Attrs: mustprogress nounwind uwtable
define linkonce_odr void @_ZN5arrow7compute15FunctionOptionsC2EPKNS0_19FunctionOptionsTypeE(ptr noundef nonnull align 8 dereferenceable(16) %0, ptr noundef %1) unnamed_addr #0 comdat align 2 {
  %3 = alloca ptr, align 8
  %4 = alloca ptr, align 8
  store ptr %0, ptr %3, align 8, !tbaa !170
  store ptr %1, ptr %4, align 8, !tbaa !53
  %5 = load ptr, ptr %3, align 8
  store ptr getelementptr inbounds inrange(-16, 16) ({ [4 x ptr] }, ptr @_ZTVN5arrow7compute15FunctionOptionsE, i32 0, i32 0, i32 2), ptr %5, align 8, !tbaa !165
  %6 = getelementptr inbounds nuw %"class.arrow::compute::FunctionOptions", ptr %5, i32 0, i32 1
  %7 = load ptr, ptr %4, align 8, !tbaa !53
  store ptr %7, ptr %6, align 8, !tbaa !172
  ret void
}

; Function Attrs: mustprogress uwtable
define void @_ZN5arrow7compute16ArraySortOptionsC2ENS0_9SortOrderENS0_13NullPlacementE(ptr noundef nonnull align 8 dereferenceable(24) %0, i32 noundef %1, i32 noundef %2) unnamed_addr #2 align 2 {
  %4 = alloca ptr, align 8
  %5 = alloca i32, align 4
  %6 = alloca i32, align 4
  store ptr %0, ptr %4, align 8, !tbaa !191
  store i32 %1, ptr %5, align 4, !tbaa !193
  store i32 %2, ptr %6, align 4, !tbaa !195
  %7 = load ptr, ptr %4, align 8
  %8 = load ptr, ptr @_ZN5arrow7compute8internal12_GLOBAL__N_121kArraySortOptionsTypeE, align 8, !tbaa !53
  call void @_ZN5arrow7compute15FunctionOptionsC2EPKNS0_19FunctionOptionsTypeE(ptr noundef nonnull align 8 dereferenceable(16) %7, ptr noundef %8)
  store ptr getelementptr inbounds inrange(-16, 16) ({ [4 x ptr] }, ptr @_ZTVN5arrow7compute16ArraySortOptionsE, i32 0, i32 0, i32 2), ptr %7, align 8, !tbaa !165
  %9 = getelementptr inbounds nuw %"class.arrow::compute::ArraySortOptions", ptr %7, i32 0, i32 1
  %10 = load i32, ptr %5, align 4, !tbaa !193
  store i32 %10, ptr %9, align 8, !tbaa !197
  %11 = getelementptr inbounds nuw %"class.arrow::compute::ArraySortOptions", ptr %7, i32 0, i32 2
  %12 = load i32, ptr %6, align 4, !tbaa !195
  store i32 %12, ptr %11, align 4, !tbaa !199
  ret void
}