; Function Attrs: mustprogress nofree norecurse nosync nounwind willreturn memory(read, argmem: write, inaccessiblemem: none) uwtable
define void @_ZN5arrow7compute16ArraySortOptionsC2ENS0_9SortOrderENS0_13NullPlacementE(ptr noundef nonnull writeonly align 8 captures(none) dereferenceable(24) initializes((0, 24)) %0, i32 noundef %1, i32 noundef %2) unnamed_addr #2 align 2 {
  %4 = load ptr, ptr @_ZN5arrow7compute8internal12_GLOBAL__N_121kArraySortOptionsTypeE, align 8, !tbaa !32
  %5 = getelementptr inbounds nuw i8, ptr %0, i64 8
  store ptr %4, ptr %5, align 8, !tbaa !35
  store ptr getelementptr inbounds nuw inrange(-16, 16) (i8, ptr @_ZTVN5arrow7compute16ArraySortOptionsE, i64 16), ptr %0, align 8, !tbaa !37
  %6 = getelementptr inbounds nuw i8, ptr %0, i64 16
  store i32 %1, ptr %6, align 8, !tbaa !54
  %7 = getelementptr inbounds nuw i8, ptr %0, i64 20
  store i32 %2, ptr %7, align 4, !tbaa !58
  ret void
}